target datalayout = "e-m:e-p270:32:32-p271:32:32-p272:64:64-i64:64-i128:128-f80:128-n8:16:32:64-S128"
target triple = "x86_64-pc-linux-gnu"

%"class.std::__cxx11::basic_string" = type { %"struct.std::__cxx11::basic_string<char>::_Alloc_hider", i64, %union.anon }
%"struct.std::__cxx11::basic_string<char>::_Alloc_hider" = type { ptr }
%union.anon = type { i64, [8 x i8] }
%"class.(anonymous namespace)::Helper" = type { ptr, ptr, %"class.std::__cxx11::basic_string" }
%class.cmListFileBacktrace = type { %class.cmConstStack }
%class.cmConstStack = type { %"class.std::shared_ptr" }
%"class.std::shared_ptr" = type { %"class.std::__shared_ptr" }
%"class.std::__shared_ptr" = type { ptr, %"class.std::__shared_count" }
%"class.std::__shared_count" = type { ptr }
%"class.std::unique_ptr.455" = type { %"struct.std::__uniq_ptr_data.456" }
%"struct.std::__uniq_ptr_data.456" = type { %"class.std::__uniq_ptr_impl.457" }
%"class.std::__uniq_ptr_impl.457" = type { %"class.std::tuple.458" }
%"class.std::tuple.458" = type { %"struct.std::_Tuple_impl.459" }
%"struct.std::_Tuple_impl.459" = type { %"struct.std::_Head_base.462" }
%"struct.std::_Head_base.462" = type { ptr }

; Function Attrs: mustprogress uwtable
define internal void @_ZN12_GLOBAL__N_129CreateInstallFileSetGeneratorERNS_6HelperER8cmTargetP9cmFileSetRKNSt7__cxx1112basic_stringIcSt11char_traitsIcESaIcEEERK25cmInstallCommandArguments(ptr dead_on_unwind noalias writable sret(%"class.std::unique_ptr.455") align 8 %0, ptr noundef nonnull align 8 dereferenceable(48) %1, ptr noundef nonnull align 8 dereferenceable(8) %2, ptr noundef %3, ptr noundef nonnull align 8 dereferenceable(32) %4, ptr noundef nonnull align 8 dereferenceable(440) %5) #6 personality ptr @__gxx_personality_v0 {
  %7 = alloca ptr, align 8
  %8 = alloca ptr, align 8
  %9 = alloca ptr, align 8
  %10 = alloca ptr, align 8
  %11 = alloca ptr, align 8
  %12 = alloca ptr, align 8
  %13 = alloca i32, align 4
  %14 = alloca i8, align 1
  %15 = alloca i8, align 1
  %16 = alloca %class.cmListFileBacktrace, align 8
  %17 = alloca ptr, align 8
  %18 = alloca i32, align 4
  store ptr %0, ptr %7, align 8
  store ptr %1, ptr %8, align 8
  store ptr %2, ptr %9, align 8
  store ptr %3, ptr %10, align 8
  store ptr %4, ptr %11, align 8
  store ptr %5, ptr %12, align 8
  %19 = load ptr, ptr %8, align 8
  %20 = getelementptr inbounds %"class.(anonymous namespace)::Helper", ptr %19, i32 0, i32 1
  %21 = load ptr, ptr %20, align 8
  %22 = call noundef i32 @_ZN18cmInstallGenerator18SelectMessageLevelEP10cmMakefileb(ptr noundef %21, i1 noundef zeroext false)
  store i32 %22, ptr %13, align 4
  %23 = load ptr, ptr %9, align 8
  %24 = call noundef nonnull align 8 dereferenceable(32) ptr @_ZNK8cmTarget7GetNameB5cxx11Ev(ptr noundef nonnull align 8 dereferenceable(8) %23)
  %25 = load ptr, ptr %11, align 8
  %26 = load ptr, ptr %12, align 8
  %27 = call noundef nonnull align 8 dereferenceable(32) ptr @_ZNK25cmInstallCommandArguments14GetPermissionsB5cxx11Ev(ptr noundef nonnull align 8 dereferenceable(440) %26)
  %28 = load ptr, ptr %12, align 8
  %29 = call noundef nonnull align 8 dereferenceable(24) ptr @_ZNK25cmInstallCommandArguments17GetConfigurationsB5cxx11Ev(ptr noundef nonnull align 8 dereferenceable(440) %28)
  %30 = load ptr, ptr %12, align 8
  %31 = call noundef nonnull align 8 dereferenceable(32) ptr @_ZNK25cmInstallCommandArguments12GetComponentB5cxx11Ev(ptr noundef nonnull align 8 dereferenceable(440) %30)
  %32 = load ptr, ptr %12, align 8
  %33 = call noundef zeroext i1 @_ZNK25cmInstallCommandArguments17GetExcludeFromAllEv(ptr noundef nonnull align 8 dereferenceable(440) %32)
  %34 = zext i1 %33 to i8
  store i8 %34, ptr %14, align 1
  %35 = load ptr, ptr %12, align 8
  %36 = call noundef zeroext i1 @_ZNK25cmInstallCommandArguments11GetOptionalEv(ptr noundef nonnull align 8 dereferenceable(440) %35)
  %37 = zext i1 %36 to i8
  store i8 %37, ptr %15, align 1
  %38 = load ptr, ptr %8, align 8
  %39 = getelementptr inbounds %"class.(anonymous namespace)::Helper", ptr %38, i32 0, i32 1
  %40 = load ptr, ptr %39, align 8
  call void @_ZNK10cmMakefile12GetBacktraceEv(ptr dead_on_unwind writable sret(%class.cmListFileBacktrace) align 8 %16, ptr noundef nonnull align 8 dereferenceable(3520) %40)
  invoke void @_ZSt11make_uniqueI25cmInstallFileSetGeneratorJRKNSt7__cxx1112basic_stringIcSt11char_traitsIcESaIcEEERP9cmFileSetS8_S8_RKSt6vectorIS6_SaIS6_EES8_RN18cmInstallGenerator12MessageLevelEbb19cmListFileBacktraceEENSt8__detail9_MakeUniqIT_E15__single_objectEDpOT0_(ptr dead_on_unwind writable sret(%"class.std::unique_ptr.455") align 8 %0, ptr noundef nonnull align 8 dereferenceable(32) %24, ptr noundef nonnull align 8 dereferenceable(8) %10, ptr noundef nonnull align 8 dereferenceable(32) %25, ptr noundef nonnull align 8 dereferenceable(32) %27, ptr noundef nonnull align 8 dereferenceable(24) %29, ptr noundef nonnull align 8 dereferenceable(32) %31, ptr noundef nonnull align 4 dereferenceable(4) %13, ptr noundef nonnull align 1 dereferenceable(1) %14, ptr noundef nonnull align 1 dereferenceable(1) %15, ptr noundef nonnull align 8 dereferenceable(16) %16)
          to label %41 unwind label %42

41:                                               ; preds = %6
  call void @_ZN19cmListFileBacktraceD2Ev(ptr noundef nonnull align 8 dereferenceable(16) %16) #3
  ret void

42:                                               ; preds = %6
  %43 = landingpad { ptr, i32 }
          cleanup
  %44 = extractvalue { ptr, i32 } %43, 0
  store ptr %44, ptr %17, align 8
  %45 = extractvalue { ptr, i32 } %43, 1
  store i32 %45, ptr %18, align 4
  call void @_ZN19cmListFileBacktraceD2Ev(ptr noundef nonnull align 8 dereferenceable(16) %16) #3
  br label %46

46:                                               ; preds = %42
  %47 = load ptr, ptr %17, align 8
  %48 = load i32, ptr %18, align 4
  %49 = insertvalue { ptr, i32 } poison, ptr %47, 0
  %50 = insertvalue { ptr, i32 } %49, i32 %48, 1
  resume { ptr, i32 } %50
}